target datalayout = "e-m:e-p270:32:32-p271:32:32-p272:64:64-i64:64-i128:128-f80:128-n8:16:32:64-S128"
target triple = "x86_64-pc-linux-gnu"

%struct.ident_t = type { i32, i32, i32, i32, ptr }
%"struct.faiss::ClusteringParameters" = type { i32, i32, i8, i8, i8, i8, i8, i32, i32, i32, i64 }
%"class.std::vector" = type { %"struct.std::_Vector_base" }
%"struct.std::_Vector_base" = type { %"struct.std::_Vector_base<float, std::allocator<float>>::_Vector_impl" }
%"struct.std::_Vector_base<float, std::allocator<float>>::_Vector_impl" = type { %"struct.std::_Vector_base<float, std::allocator<float>>::_Vector_impl_data" }
%"struct.std::_Vector_base<float, std::allocator<float>>::_Vector_impl_data" = type { ptr, ptr, ptr }
%"struct.faiss::ProductQuantizer" = type { %"struct.faiss::Quantizer", i64, i64, i64, i64, i8, i32, %"struct.faiss::ClusteringParameters", ptr, %"class.std::vector", %"class.std::vector", %"class.std::vector", %"class.std::vector" }
%"struct.faiss::Quantizer" = type { ptr, i64, i64 }

@2 = private unnamed_addr constant %struct.ident_t { i32 0, i32 2, i32 0, i32 22, ptr @0 }, align 8
@.str.11 = private unnamed_addr constant [11 x i8] c"Transposed\00", align 1
@.str.12 = private unnamed_addr constant [15 x i8] c"Not transposed\00", align 1

; Function Attrs: mustprogress nounwind uwtable
define linkonce_odr noundef nonnull align 4 dereferenceable(4) ptr @_ZNKSt6vectorIfSaIfEEixEm(ptr noundef nonnull align 8 dereferenceable(24) %0, i64 noundef %1) #1 comdat align 2 {
  %3 = alloca ptr, align 8
  %4 = alloca i64, align 8
  store ptr %0, ptr %3, align 8
  store i64 %1, ptr %4, align 8
  %5 = load ptr, ptr %3, align 8
  %6 = getelementptr inbounds %"struct.std::_Vector_base", ptr %5, i32 0, i32 0
  %7 = getelementptr inbounds %"struct.std::_Vector_base<float, std::allocator<float>>::_Vector_impl_data", ptr %6, i32 0, i32 0
  %8 = load ptr, ptr %7, align 8
  %9 = load i64, ptr %4, align 8
  %10 = getelementptr inbounds float, ptr %8, i64 %9
  ret ptr %10
}

; Function Attrs: mustprogress uwtable
define void @_ZNK5faiss16ProductQuantizer25compute_inner_prod_tablesEmPKfPf(ptr noundef nonnull align 8 dereferenceable(208) %0, i64 noundef %1, ptr noundef %2, ptr noundef %3) #0 align 2 {
  %5 = alloca ptr, align 8
  %6 = alloca i64, align 8
  %7 = alloca ptr, align 8
  %8 = alloca ptr, align 8
  %9 = alloca i32, align 4
  %10 = alloca i32, align 4
  %11 = alloca i32, align 4
  %12 = alloca i32, align 4
  %13 = alloca i32, align 4
  %14 = alloca i32, align 4
  %15 = alloca i32, align 4
  %16 = alloca i32, align 4
  %17 = alloca float, align 4
  %18 = alloca float, align 4
  %19 = call i32 @__kmpc_global_thread_num(ptr @2)
  store ptr %0, ptr %5, align 8
  store i64 %1, ptr %6, align 8
  store ptr %2, ptr %7, align 8
  store ptr %3, ptr %8, align 8
  %20 = load ptr, ptr %5, align 8
  %21 = getelementptr inbounds %"struct.faiss::ProductQuantizer", ptr %20, i32 0, i32 3
  %22 = load i64, ptr %21, align 8
  %23 = icmp ult i64 %22, 16
  br i1 %23, label %24, label %30

24:                                               ; preds = %4
  %25 = load i64, ptr %6, align 8
  %26 = icmp ugt i64 %25, 1
  br i1 %26, label %27, label %28

27:                                               ; preds = %24
  call void (ptr, i32, ptr, ...) @__kmpc_fork_call(ptr @2, i32 4, ptr @_ZNK5faiss16ProductQuantizer25compute_inner_prod_tablesEmPKfPf.omp_outlined, ptr %6, ptr %20, ptr %7, ptr %8)
  br label %29

28:                                               ; preds = %24
  call void @__kmpc_serialized_parallel(ptr @2, i32 %19)
  store i32 %19, ptr %9, align 4
  store i32 0, ptr %10, align 4
  call void @_ZNK5faiss16ProductQuantizer25compute_inner_prod_tablesEmPKfPf.omp_outlined(ptr %9, ptr %10, ptr %6, ptr %20, ptr %7, ptr %8) #12
  call void @__kmpc_end_serialized_parallel(ptr @2, i32 %19)
  br label %29

29:                                               ; preds = %28, %27
  br label %84

30:                                               ; preds = %4
  store i32 0, ptr %11, align 4
  br label %31

31:                                               ; preds = %80, %30
  %32 = load i32, ptr %11, align 4
  %33 = sext i32 %32 to i64
  %34 = getelementptr inbounds %"struct.faiss::ProductQuantizer", ptr %20, i32 0, i32 1
  %35 = load i64, ptr %34, align 8
  %36 = icmp ult i64 %33, %35
  br i1 %36, label %37, label %83

37:                                               ; preds = %31
  %38 = getelementptr inbounds %"struct.faiss::ProductQuantizer", ptr %20, i32 0, i32 4
  %39 = load i64, ptr %38, align 8
  %40 = getelementptr inbounds %"struct.faiss::ProductQuantizer", ptr %20, i32 0, i32 1
  %41 = load i64, ptr %40, align 8
  %42 = mul i64 %39, %41
  %43 = trunc i64 %42 to i32
  store i32 %43, ptr %12, align 4
  %44 = load i64, ptr %6, align 8
  %45 = trunc i64 %44 to i32
  store i32 %45, ptr %13, align 4
  %46 = getelementptr inbounds %"struct.faiss::ProductQuantizer", ptr %20, i32 0, i32 4
  %47 = load i64, ptr %46, align 8
  %48 = trunc i64 %47 to i32
  store i32 %48, ptr %14, align 4
  %49 = getelementptr inbounds %"struct.faiss::ProductQuantizer", ptr %20, i32 0, i32 3
  %50 = load i64, ptr %49, align 8
  %51 = trunc i64 %50 to i32
  store i32 %51, ptr %15, align 4
  %52 = getelementptr inbounds %"struct.faiss::Quantizer", ptr %20, i32 0, i32 1
  %53 = load i64, ptr %52, align 8
  %54 = trunc i64 %53 to i32
  store i32 %54, ptr %16, align 4
  store float 1.000000e+00, ptr %17, align 4
  store float 0.000000e+00, ptr %18, align 4
  %55 = getelementptr inbounds %"struct.faiss::ProductQuantizer", ptr %20, i32 0, i32 9
  %56 = load i32, ptr %11, align 4
  %57 = sext i32 %56 to i64
  %58 = getelementptr inbounds %"struct.faiss::ProductQuantizer", ptr %20, i32 0, i32 3
  %59 = load i64, ptr %58, align 8
  %60 = mul i64 %57, %59
  %61 = getelementptr inbounds %"struct.faiss::ProductQuantizer", ptr %20, i32 0, i32 4
  %62 = load i64, ptr %61, align 8
  %63 = mul i64 %60, %62
  %64 = call noundef nonnull align 4 dereferenceable(4) ptr @_ZNKSt6vectorIfSaIfEEixEm(ptr noundef nonnull align 8 dereferenceable(24) %55, i64 noundef %63) #12
  %65 = load ptr, ptr %7, align 8
  %66 = getelementptr inbounds %"struct.faiss::ProductQuantizer", ptr %20, i32 0, i32 3
  %67 = load i64, ptr %66, align 8
  %68 = load i32, ptr %11, align 4
  %69 = sext i32 %68 to i64
  %70 = mul i64 %67, %69
  %71 = getelementptr inbounds float, ptr %65, i64 %70
  %72 = load ptr, ptr %8, align 8
  %73 = getelementptr inbounds %"struct.faiss::ProductQuantizer", ptr %20, i32 0, i32 4
  %74 = load i64, ptr %73, align 8
  %75 = load i32, ptr %11, align 4
  %76 = sext i32 %75 to i64
  %77 = mul i64 %74, %76
  %78 = getelementptr inbounds float, ptr %72, i64 %77
  %79 = call i32 @sgemm_(ptr noundef @.str.11, ptr noundef @.str.12, ptr noundef %14, ptr noundef %13, ptr noundef %15, ptr noundef %17, ptr noundef %64, ptr noundef %15, ptr noundef %71, ptr noundef %16, ptr noundef %18, ptr noundef %78, ptr noundef %12)
  br label %80

80:                                               ; preds = %37
  %81 = load i32, ptr %11, align 4
  %82 = add nsw i32 %81, 1
  store i32 %82, ptr %11, align 4
  br label %31, !llvm.loop !42

83:                                               ; preds = %31
  br label %84

84:                                               ; preds = %83, %29
  ret void
}