; Function Attrs: mustprogress uwtable
define void @_ZNK5faiss16ProductQuantizer25compute_inner_prod_tablesEmPKfPf(ptr noundef nonnull align 8 dereferenceable(208) %0, i64 noundef %1, ptr noundef %2, ptr noundef %3) local_unnamed_addr #0 align 2 {
  %5 = alloca i64, align 8
  %6 = alloca ptr, align 8
  %7 = alloca ptr, align 8
  %8 = alloca i32, align 4
  %9 = alloca i32, align 4
  %10 = alloca i32, align 4
  %11 = alloca i32, align 4
  %12 = alloca i32, align 4
  %13 = alloca i32, align 4
  %14 = alloca float, align 4
  %15 = alloca float, align 4
  %16 = tail call i32 @__kmpc_global_thread_num(ptr nonnull @2)
  store i64 %1, ptr %5, align 8
  store ptr %2, ptr %6, align 8
  store ptr %3, ptr %7, align 8
  %17 = getelementptr inbounds i8, ptr %0, i64 40
  %18 = load i64, ptr %17, align 8
  %19 = icmp ult i64 %18, 16
  br i1 %19, label %26, label %.preheader

.preheader:                                       ; preds = %4
  %20 = getelementptr inbounds i8, ptr %0, i64 24
  %21 = load i64, ptr %20, align 8
  %.not = icmp eq i64 %21, 0
  br i1 %.not, label %.loopexit, label %.lr.ph

.lr.ph:                                           ; preds = %.preheader
  %22 = getelementptr inbounds i8, ptr %0, i64 48
  %23 = getelementptr inbounds i8, ptr %0, i64 8
  %24 = getelementptr inbounds i8, ptr %0, i64 112
  %25 = trunc i64 %1 to i32
  br label %30

26:                                               ; preds = %4
  %27 = icmp ugt i64 %1, 1
  br i1 %27, label %28, label %29

28:                                               ; preds = %26
  call void (ptr, i32, ptr, ...) @__kmpc_fork_call(ptr nonnull @2, i32 4, ptr nonnull @_ZNK5faiss16ProductQuantizer25compute_inner_prod_tablesEmPKfPf.omp_outlined, ptr nonnull %5, ptr nonnull %0, ptr nonnull %6, ptr nonnull %7)
  br label %.loopexit

29:                                               ; preds = %26
  tail call void @__kmpc_serialized_parallel(ptr nonnull @2, i32 %16)
  store i32 %16, ptr %8, align 4
  call void @_ZNK5faiss16ProductQuantizer25compute_inner_prod_tablesEmPKfPf.omp_outlined(ptr nonnull %8, ptr nonnull poison, ptr %5, ptr nonnull %0, ptr %6, ptr %7) #16
  tail call void @__kmpc_end_serialized_parallel(ptr nonnull @2, i32 %16)
  br label %.loopexit

30:                                               ; preds = %.lr.ph, %30
  %indvars.iv = phi i64 [ 0, %.lr.ph ], [ %indvars.iv.next, %30 ]
  %31 = phi i64 [ %21, %.lr.ph ], [ %48, %30 ]
  %32 = load i64, ptr %22, align 8
  %33 = mul i64 %32, %31
  %34 = trunc i64 %33 to i32
  store i32 %34, ptr %9, align 4
  store i32 %25, ptr %10, align 4
  %35 = trunc i64 %32 to i32
  store i32 %35, ptr %11, align 4
  %36 = load i64, ptr %17, align 8
  %37 = trunc i64 %36 to i32
  store i32 %37, ptr %12, align 4
  %38 = load i64, ptr %23, align 8
  %39 = trunc i64 %38 to i32
  store i32 %39, ptr %13, align 4
  store float 1.000000e+00, ptr %14, align 4
  store float 0.000000e+00, ptr %15, align 4
  %40 = mul i64 %36, %indvars.iv
  %41 = mul i64 %40, %32
  %42 = load ptr, ptr %24, align 8
  %43 = getelementptr inbounds float, ptr %42, i64 %41
  %44 = getelementptr inbounds float, ptr %2, i64 %40
  %45 = mul i64 %32, %indvars.iv
  %46 = getelementptr inbounds float, ptr %3, i64 %45
  %47 = call i32 @sgemm_(ptr noundef nonnull @.str.11, ptr noundef nonnull @.str.12, ptr noundef nonnull %11, ptr noundef nonnull %10, ptr noundef nonnull %12, ptr noundef nonnull %14, ptr noundef nonnull %43, ptr noundef nonnull %12, ptr noundef %44, ptr noundef nonnull %13, ptr noundef nonnull %15, ptr noundef %46, ptr noundef nonnull %9)
  %indvars.iv.next = add nuw nsw i64 %indvars.iv, 1
  %48 = load i64, ptr %20, align 8
  %49 = icmp ugt i64 %48, %indvars.iv.next
  br i1 %49, label %30, label %.loopexit, !llvm.loop !45

.loopexit:                                        ; preds = %30, %.preheader, %28, %29
  ret void
}